target datalayout = "e-m:e-p270:32:32-p271:32:32-p272:64:64-i64:64-i128:128-f80:128-n8:16:32:64-S128"
target triple = "x86_64-pc-linux-gnu"

%struct.CVodeMemRec = type { ptr, double, ptr, ptr, i32, i32, double, double, ptr, i32, i32, ptr, ptr, i32, [13 x ptr], ptr, ptr, ptr, ptr, ptr, ptr, ptr, ptr, ptr, i32, i32, double, i32, i32, i32, i32, i32, double, double, double, double, double, double, double, double, [14 x double], [6 x double], [13 x double], double, double, double, double, double, double, double, i32, double, i32, i64, i32, i32, i32, double, double, double, double, double, double, double, double, double, double, double, double, i64, i32, i64, i64, i64, i64, i64, i64, i64, i32, double, double, double, i64, i64, i64, i64, ptr, i32, ptr, i32, ptr, ptr, ptr, ptr, ptr, i64, double, i32, i64, double, double, double, i32, double, i32, i32, i32, i32, i32, ptr, i64, i32, [6 x [4 x double]], i32, i64, ptr, i32, ptr, ptr, double, double, double, ptr, ptr, ptr, double, double, i32, i32, i64, ptr, i32, ptr, i32, i32, [13 x double], [13 x double], [13 x ptr], i32 }
%struct.CVodeProjMemRec = type { i32, i32, i32, i64, i64, i32, ptr, double, double, i64, i64 }

@.str = private unnamed_addr constant [118 x i8] c"generated/home/dtcxzyw/WorkSpace/Projects/compilers/llvm-opt-benchmark/bench/sundials/sundials/src/cvode/cvode_proj.c\00", align 1
@__func__.cvDoProjection = private unnamed_addr constant [15 x i8] c"cvDoProjection\00", align 1
@.str.5 = private unnamed_addr constant [25 x i8] c"proj_mem = NULL illegal.\00", align 1

; Function Attrs: nounwind uwtable
define i32 @cvDoProjection(ptr noundef %0, ptr noundef %1, double noundef %2, ptr noundef %3) #0 {
  %5 = alloca i32, align 4
  %6 = alloca ptr, align 8
  %7 = alloca ptr, align 8
  %8 = alloca double, align 8
  %9 = alloca ptr, align 8
  %10 = alloca i32, align 4
  %11 = alloca ptr, align 8
  %12 = alloca ptr, align 8
  %13 = alloca ptr, align 8
  store ptr %0, ptr %6, align 8
  store ptr %1, ptr %7, align 8
  store double %2, ptr %8, align 8
  store ptr %3, ptr %9, align 8
  %14 = load ptr, ptr %6, align 8
  %15 = getelementptr inbounds %struct.CVodeMemRec, ptr %14, i32 0, i32 132
  %16 = load ptr, ptr %15, align 8
  %17 = icmp eq ptr %16, null
  br i1 %17, label %18, label %20

18:                                               ; preds = %4
  %19 = load ptr, ptr %6, align 8
  call void (ptr, i32, i32, ptr, ptr, ptr, ...) @cvProcessError(ptr noundef %19, i32 noundef -29, i32 noundef 287, ptr noundef @__func__.cvDoProjection, ptr noundef @.str, ptr noundef @.str.5)
  store i32 -29, ptr %5, align 4
  br label %166

20:                                               ; preds = %4
  %21 = load ptr, ptr %6, align 8
  %22 = getelementptr inbounds %struct.CVodeMemRec, ptr %21, i32 0, i32 132
  %23 = load ptr, ptr %22, align 8
  store ptr %23, ptr %13, align 8
  store i32 0, ptr %10, align 4
  %24 = load ptr, ptr %6, align 8
  %25 = getelementptr inbounds %struct.CVodeMemRec, ptr %24, i32 0, i32 18
  %26 = load ptr, ptr %25, align 8
  store ptr %26, ptr %12, align 8
  %27 = load ptr, ptr %13, align 8
  %28 = getelementptr inbounds %struct.CVodeProjMemRec, ptr %27, i32 0, i32 1
  %29 = load i32, ptr %28, align 4
  %30 = icmp ne i32 %29, 0
  br i1 %30, label %31, label %35

31:                                               ; preds = %20
  %32 = load ptr, ptr %6, align 8
  %33 = getelementptr inbounds %struct.CVodeMemRec, ptr %32, i32 0, i32 19
  %34 = load ptr, ptr %33, align 8
  store ptr %34, ptr %11, align 8
  br label %36

35:                                               ; preds = %20
  store ptr null, ptr %11, align 8
  br label %36

36:                                               ; preds = %35, %31
  %37 = load ptr, ptr %13, align 8
  %38 = getelementptr inbounds %struct.CVodeProjMemRec, ptr %37, i32 0, i32 1
  %39 = load i32, ptr %38, align 4
  %40 = icmp ne i32 %39, 0
  br i1 %40, label %41, label %46

41:                                               ; preds = %36
  %42 = load ptr, ptr %6, align 8
  %43 = getelementptr inbounds %struct.CVodeMemRec, ptr %42, i32 0, i32 17
  %44 = load ptr, ptr %43, align 8
  %45 = load ptr, ptr %11, align 8
  call void @N_VScale(double noundef 1.000000e+00, ptr noundef %44, ptr noundef %45)
  br label %46

46:                                               ; preds = %41, %36
  %47 = load ptr, ptr %13, align 8
  %48 = getelementptr inbounds %struct.CVodeProjMemRec, ptr %47, i32 0, i32 6
  %49 = load ptr, ptr %48, align 8
  %50 = load ptr, ptr %6, align 8
  %51 = getelementptr inbounds %struct.CVodeMemRec, ptr %50, i32 0, i32 38
  %52 = load double, ptr %51, align 8
  %53 = load ptr, ptr %6, align 8
  %54 = getelementptr inbounds %struct.CVodeMemRec, ptr %53, i32 0, i32 16
  %55 = load ptr, ptr %54, align 8
  %56 = load ptr, ptr %12, align 8
  %57 = load ptr, ptr %13, align 8
  %58 = getelementptr inbounds %struct.CVodeProjMemRec, ptr %57, i32 0, i32 7
  %59 = load double, ptr %58, align 8
  %60 = load ptr, ptr %11, align 8
  %61 = load ptr, ptr %6, align 8
  %62 = getelementptr inbounds %struct.CVodeMemRec, ptr %61, i32 0, i32 3
  %63 = load ptr, ptr %62, align 8
  %64 = call i32 %49(double noundef %52, ptr noundef %55, ptr noundef %56, double noundef %59, ptr noundef %60, ptr noundef %63)
  store i32 %64, ptr %10, align 4
  %65 = load ptr, ptr %13, align 8
  %66 = getelementptr inbounds %struct.CVodeProjMemRec, ptr %65, i32 0, i32 9
  %67 = load i64, ptr %66, align 8
  %68 = add nsw i64 %67, 1
  store i64 %68, ptr %66, align 8
  %69 = load ptr, ptr %13, align 8
  %70 = getelementptr inbounds %struct.CVodeProjMemRec, ptr %69, i32 0, i32 2
  store i32 0, ptr %70, align 8
  %71 = load i32, ptr %10, align 4
  %72 = icmp eq i32 %71, 0
  br i1 %72, label %73, label %89

73:                                               ; preds = %46
  %74 = load ptr, ptr %13, align 8
  %75 = getelementptr inbounds %struct.CVodeProjMemRec, ptr %74, i32 0, i32 1
  %76 = load i32, ptr %75, align 4
  %77 = icmp ne i32 %76, 0
  br i1 %77, label %78, label %86

78:                                               ; preds = %73
  %79 = load ptr, ptr %11, align 8
  %80 = load ptr, ptr %6, align 8
  %81 = getelementptr inbounds %struct.CVodeMemRec, ptr %80, i32 0, i32 15
  %82 = load ptr, ptr %81, align 8
  %83 = call double @N_VWrmsNorm(ptr noundef %79, ptr noundef %82)
  %84 = load ptr, ptr %6, align 8
  %85 = getelementptr inbounds %struct.CVodeMemRec, ptr %84, i32 0, i32 49
  store double %83, ptr %85, align 8
  br label %86

86:                                               ; preds = %78, %73
  %87 = load ptr, ptr %6, align 8
  %88 = getelementptr inbounds %struct.CVodeMemRec, ptr %87, i32 0, i32 134
  store i32 1, ptr %88, align 4
  store i32 0, ptr %5, align 4
  br label %166

89:                                               ; preds = %46
  %90 = load i32, ptr %10, align 4
  %91 = icmp slt i32 %90, 0
  br i1 %91, label %92, label %93

92:                                               ; preds = %89
  store i32 -30, ptr %10, align 4
  br label %93

93:                                               ; preds = %92, %89
  %94 = load i32, ptr %10, align 4
  %95 = icmp sgt i32 %94, 0
  br i1 %95, label %96, label %97

96:                                               ; preds = %93
  store i32 13, ptr %10, align 4
  br label %97

97:                                               ; preds = %96, %93
  %98 = load ptr, ptr %13, align 8
  %99 = getelementptr inbounds %struct.CVodeProjMemRec, ptr %98, i32 0, i32 10
  %100 = load i64, ptr %99, align 8
  %101 = add nsw i64 %100, 1
  store i64 %101, ptr %99, align 8
  %102 = load ptr, ptr %6, align 8
  %103 = load double, ptr %8, align 8
  call void @cvRestore(ptr noundef %102, double noundef %103)
  %104 = load i32, ptr %10, align 4
  %105 = icmp eq i32 %104, -30
  br i1 %105, label %106, label %107

106:                                              ; preds = %97
  store i32 -30, ptr %5, align 4
  br label %166

107:                                              ; preds = %97
  %108 = load ptr, ptr %9, align 8
  %109 = load i32, ptr %108, align 4
  %110 = add nsw i32 %109, 1
  store i32 %110, ptr %108, align 4
  %111 = load ptr, ptr %6, align 8
  %112 = getelementptr inbounds %struct.CVodeMemRec, ptr %111, i32 0, i32 59
  store double 1.000000e+00, ptr %112, align 8
  %113 = load ptr, ptr %6, align 8
  %114 = getelementptr inbounds %struct.CVodeMemRec, ptr %113, i32 0, i32 33
  %115 = load double, ptr %114, align 8
  %116 = call double @llvm.fabs.f64(double %115)
  %117 = load ptr, ptr %6, align 8
  %118 = getelementptr inbounds %struct.CVodeMemRec, ptr %117, i32 0, i32 57
  %119 = load double, ptr %118, align 8
  %120 = fmul double %119, 0x3FF000010C6F7A0B
  %121 = fcmp ole double %116, %120
  br i1 %121, label %129, label %122

122:                                              ; preds = %107
  %123 = load ptr, ptr %9, align 8
  %124 = load i32, ptr %123, align 4
  %125 = load ptr, ptr %13, align 8
  %126 = getelementptr inbounds %struct.CVodeProjMemRec, ptr %125, i32 0, i32 5
  %127 = load i32, ptr %126, align 8
  %128 = icmp eq i32 %124, %127
  br i1 %128, label %129, label %134

129:                                              ; preds = %122, %107
  %130 = load i32, ptr %10, align 4
  %131 = icmp eq i32 %130, 13
  br i1 %131, label %132, label %133

132:                                              ; preds = %129
  store i32 -31, ptr %5, align 4
  br label %166

133:                                              ; preds = %129
  br label %134

134:                                              ; preds = %133, %122
  %135 = load ptr, ptr %13, align 8
  %136 = getelementptr inbounds %struct.CVodeProjMemRec, ptr %135, i32 0, i32 8
  %137 = load double, ptr %136, align 8
  %138 = load ptr, ptr %6, align 8
  %139 = getelementptr inbounds %struct.CVodeMemRec, ptr %138, i32 0, i32 57
  %140 = load double, ptr %139, align 8
  %141 = load ptr, ptr %6, align 8
  %142 = getelementptr inbounds %struct.CVodeMemRec, ptr %141, i32 0, i32 33
  %143 = load double, ptr %142, align 8
  %144 = call double @llvm.fabs.f64(double %143)
  %145 = fdiv double %140, %144
  %146 = fcmp ogt double %137, %145
  br i1 %146, label %147, label %151

147:                                              ; preds = %134
  %148 = load ptr, ptr %13, align 8
  %149 = getelementptr inbounds %struct.CVodeProjMemRec, ptr %148, i32 0, i32 8
  %150 = load double, ptr %149, align 8
  br label %160

151:                                              ; preds = %134
  %152 = load ptr, ptr %6, align 8
  %153 = getelementptr inbounds %struct.CVodeMemRec, ptr %152, i32 0, i32 57
  %154 = load double, ptr %153, align 8
  %155 = load ptr, ptr %6, align 8
  %156 = getelementptr inbounds %struct.CVodeMemRec, ptr %155, i32 0, i32 33
  %157 = load double, ptr %156, align 8
  %158 = call double @llvm.fabs.f64(double %157)
  %159 = fdiv double %154, %158
  br label %160

160:                                              ; preds = %151, %147
  %161 = phi double [ %150, %147 ], [ %159, %151 ]
  %162 = load ptr, ptr %6, align 8
  %163 = getelementptr inbounds %struct.CVodeMemRec, ptr %162, i32 0, i32 36
  store double %161, ptr %163, align 8
  %164 = load ptr, ptr %7, align 8
  store i32 8, ptr %164, align 4
  %165 = load ptr, ptr %6, align 8
  call void @cvRescale(ptr noundef %165)
  store i32 3, ptr %5, align 4
  br label %166

166:                                              ; preds = %160, %132, %106, %86, %18
  %167 = load i32, ptr %5, align 4
  ret i32 %167
}