; Function Attrs: nounwind uwtable
define range(i32 -31, 4) i32 @cvDoProjection(ptr noundef %0, ptr noundef writeonly captures(none) %1, double noundef %2, ptr noundef captures(none) %3) local_unnamed_addr #0 {
  %5 = getelementptr inbounds nuw i8, ptr %0, i64 1504
  %6 = load ptr, ptr %5, align 8
  %7 = icmp eq ptr %6, null
  br i1 %7, label %8, label %9

8:                                                ; preds = %4
  tail call void (ptr, i32, i32, ptr, ptr, ptr, ...) @cvProcessError(ptr noundef nonnull %0, i32 noundef -29, i32 noundef 287, ptr noundef nonnull @__func__.cvDoProjection, ptr noundef nonnull @.str, ptr noundef nonnull @.str.5) #8
  br label %72

9:                                                ; preds = %4
  %10 = getelementptr inbounds nuw i8, ptr %0, i64 224
  %11 = load ptr, ptr %10, align 8
  %12 = getelementptr inbounds nuw i8, ptr %6, i64 4
  %13 = load i32, ptr %12, align 4
  %.not = icmp eq i32 %13, 0
  br i1 %.not, label %.thread, label %14

14:                                               ; preds = %9
  %15 = getelementptr inbounds nuw i8, ptr %0, i64 232
  %16 = load ptr, ptr %15, align 8
  %17 = getelementptr inbounds nuw i8, ptr %0, i64 216
  %18 = load ptr, ptr %17, align 8
  tail call void @N_VScale(double noundef 1.000000e+00, ptr noundef %18, ptr noundef %16) #8
  br label %.thread

.thread:                                          ; preds = %9, %14
  %.04957 = phi ptr [ %16, %14 ], [ null, %9 ]
  %19 = getelementptr inbounds nuw i8, ptr %6, i64 40
  %20 = load ptr, ptr %19, align 8
  %21 = getelementptr inbounds nuw i8, ptr %0, i64 360
  %22 = load double, ptr %21, align 8
  %23 = getelementptr inbounds nuw i8, ptr %0, i64 208
  %24 = load ptr, ptr %23, align 8
  %25 = getelementptr inbounds nuw i8, ptr %6, i64 48
  %26 = load double, ptr %25, align 8
  %27 = getelementptr inbounds nuw i8, ptr %0, i64 24
  %28 = load ptr, ptr %27, align 8
  %29 = tail call i32 %20(double noundef %22, ptr noundef %24, ptr noundef %11, double noundef %26, ptr noundef %.04957, ptr noundef %28) #8
  %30 = getelementptr inbounds nuw i8, ptr %6, i64 64
  %31 = load i64, ptr %30, align 8
  %32 = add nsw i64 %31, 1
  store i64 %32, ptr %30, align 8
  %33 = getelementptr inbounds nuw i8, ptr %6, i64 8
  store i32 0, ptr %33, align 8
  %34 = icmp eq i32 %29, 0
  br i1 %34, label %35, label %44

35:                                               ; preds = %.thread
  %36 = load i32, ptr %12, align 4
  %.not55 = icmp eq i32 %36, 0
  br i1 %.not55, label %42, label %37

37:                                               ; preds = %35
  %38 = getelementptr inbounds nuw i8, ptr %0, i64 200
  %39 = load ptr, ptr %38, align 8
  %40 = tail call double @N_VWrmsNorm(ptr noundef %.04957, ptr noundef %39) #8
  %41 = getelementptr inbounds nuw i8, ptr %0, i64 688
  store double %40, ptr %41, align 8
  br label %42

42:                                               ; preds = %37, %35
  %43 = getelementptr inbounds nuw i8, ptr %0, i64 1516
  store i32 1, ptr %43, align 4
  br label %72

44:                                               ; preds = %.thread
  %45 = icmp slt i32 %29, 0
  %46 = icmp sgt i32 %29, 0
  %47 = getelementptr inbounds nuw i8, ptr %6, i64 72
  %48 = load i64, ptr %47, align 8
  %49 = add nsw i64 %48, 1
  store i64 %49, ptr %47, align 8
  tail call void @cvRestore(ptr noundef nonnull %0, double noundef %2) #8
  br i1 %45, label %72, label %50

50:                                               ; preds = %44
  %51 = load i32, ptr %3, align 4
  %52 = add nsw i32 %51, 1
  store i32 %52, ptr %3, align 4
  %53 = getelementptr inbounds nuw i8, ptr %0, i64 760
  store double 1.000000e+00, ptr %53, align 8
  %54 = getelementptr inbounds nuw i8, ptr %0, i64 320
  %55 = load double, ptr %54, align 8
  %56 = tail call double @llvm.fabs.f64(double %55)
  %57 = getelementptr inbounds nuw i8, ptr %0, i64 744
  %58 = load double, ptr %57, align 8
  %59 = fmul double %58, 0x3FF000010C6F7A0B
  %60 = fcmp ugt double %56, %59
  br i1 %60, label %61, label %72

61:                                               ; preds = %50
  %62 = load i32, ptr %3, align 4
  %63 = getelementptr inbounds nuw i8, ptr %6, i64 32
  %64 = load i32, ptr %63, align 8
  %65 = icmp eq i32 %62, %64
  %or.cond = and i1 %46, %65
  br i1 %or.cond, label %72, label %66

66:                                               ; preds = %61
  %67 = getelementptr inbounds nuw i8, ptr %6, i64 56
  %68 = load double, ptr %67, align 8
  %69 = fdiv double %58, %56
  %70 = fcmp ogt double %68, %69
  %. = select i1 %70, double %68, double %69
  %71 = getelementptr inbounds nuw i8, ptr %0, i64 344
  store double %., ptr %71, align 8
  store i32 8, ptr %1, align 4
  tail call void @cvRescale(ptr noundef nonnull %0) #8
  br label %72

72:                                               ; preds = %50, %61, %44, %66, %42, %8
  %.0 = phi i32 [ -29, %8 ], [ 0, %42 ], [ 3, %66 ], [ -30, %44 ], [ -31, %61 ], [ -31, %50 ]
  ret i32 %.0
}